target datalayout = "e-m:e-p270:32:32-p271:32:32-p272:64:64-i64:64-i128:128-f80:128-n8:16:32:64-S128"
target triple = "x86_64-pc-linux-gnu"

%struct.png_struct_def = type { [1 x %struct.__jmp_buf_tag], ptr, ptr, i64, ptr, ptr, ptr, ptr, ptr, ptr, ptr, ptr, ptr, i8, i8, i32, i32, i32, i32, %struct.z_stream_s, ptr, i32, i32, i32, i32, i32, i32, i32, i32, i32, i32, i32, i32, i32, i32, i32, i32, i32, i32, i32, i32, i64, i32, i32, i32, ptr, ptr, ptr, ptr, i64, i32, i32, ptr, i16, i32, i16, i8, i8, i8, i8, i8, i8, i8, i8, i8, i8, i8, i8, i8, i8, i8, i16, i8, i32, %struct.png_color_16_struct, %struct.png_color_16_struct, ptr, i32, i32, i32, i32, ptr, ptr, ptr, ptr, ptr, ptr, %struct.png_color_8_struct, %struct.png_color_8_struct, ptr, %struct.png_color_16_struct, ptr, ptr, ptr, ptr, ptr, ptr, ptr, ptr, ptr, i32, i32, i64, i64, i64, i64, i32, i32, ptr, ptr, i32, [29 x i8], i32, ptr, ptr, i32, i32, ptr, i8, i8, i16, i16, ptr, i32, i8, ptr, ptr, ptr, ptr, ptr, ptr, ptr, i8, i32, i32, i32, i64, %struct.png_unknown_chunk_t, i64, ptr, i64, i32, i32, ptr, [4 x ptr], %struct.png_colorspace }
%struct.__jmp_buf_tag = type { [8 x i64], i32, %struct.__sigset_t }
%struct.__sigset_t = type { [16 x i64] }
%struct.z_stream_s = type { ptr, i32, i64, ptr, i32, i64, ptr, ptr, ptr, ptr, ptr, i32, i64, i64 }
%struct.png_color_8_struct = type { i8, i8, i8, i8, i8 }
%struct.png_color_16_struct = type { i8, i16, i16, i16, i16 }
%struct.png_unknown_chunk_t = type { [5 x i8], ptr, i64, i8 }
%struct.png_colorspace = type { i32, %struct.png_xy, %struct.png_XYZ, i16, i16 }
%struct.png_xy = type { i32, i32, i32, i32, i32, i32, i32, i32 }
%struct.png_XYZ = type { i32, i32, i32, i32, i32, i32, i32, i32, i32 }
%struct.png_image = type { ptr, i32, i32, i32, i32, i32, i32, i32, [64 x i8] }
%struct.png_control = type { ptr, ptr, ptr, ptr, i64, i8 }

@.str.19 = private unnamed_addr constant [51 x i8] c"png_image_begin_read_from_memory: invalid argument\00", align 1
@.str.20 = private unnamed_addr constant [62 x i8] c"png_image_begin_read_from_memory: incorrect PNG_IMAGE_VERSION\00", align 1

; Function Attrs: nounwind uwtable
define i32 @png_image_begin_read_from_memory(ptr noundef %0, ptr noundef %1, i64 noundef %2) #0 {
  %4 = alloca i32, align 4
  %5 = alloca ptr, align 8
  %6 = alloca ptr, align 8
  %7 = alloca i64, align 8
  store ptr %0, ptr %5, align 8
  store ptr %1, ptr %6, align 8
  store i64 %2, ptr %7, align 8
  %8 = load ptr, ptr %5, align 8
  %9 = icmp ne ptr %8, null
  br i1 %9, label %10, label %57

10:                                               ; preds = %3
  %11 = load ptr, ptr %5, align 8
  %12 = getelementptr inbounds %struct.png_image, ptr %11, i32 0, i32 1
  %13 = load i32, ptr %12, align 8
  %14 = icmp eq i32 %13, 1
  br i1 %14, label %15, label %57

15:                                               ; preds = %10
  %16 = load ptr, ptr %6, align 8
  %17 = icmp ne ptr %16, null
  br i1 %17, label %18, label %53

18:                                               ; preds = %15
  %19 = load i64, ptr %7, align 8
  %20 = icmp ugt i64 %19, 0
  br i1 %20, label %21, label %53

21:                                               ; preds = %18
  %22 = load ptr, ptr %5, align 8
  %23 = call i32 @png_image_read_init(ptr noundef %22)
  %24 = icmp ne i32 %23, 0
  br i1 %24, label %25, label %52

25:                                               ; preds = %21
  %26 = load ptr, ptr %6, align 8
  %27 = load ptr, ptr %5, align 8
  %28 = getelementptr inbounds %struct.png_image, ptr %27, i32 0, i32 0
  %29 = load ptr, ptr %28, align 8
  %30 = getelementptr inbounds %struct.png_control, ptr %29, i32 0, i32 3
  store ptr %26, ptr %30, align 8
  %31 = load i64, ptr %7, align 8
  %32 = load ptr, ptr %5, align 8
  %33 = getelementptr inbounds %struct.png_image, ptr %32, i32 0, i32 0
  %34 = load ptr, ptr %33, align 8
  %35 = getelementptr inbounds %struct.png_control, ptr %34, i32 0, i32 4
  store i64 %31, ptr %35, align 8
  %36 = load ptr, ptr %5, align 8
  %37 = load ptr, ptr %5, align 8
  %38 = getelementptr inbounds %struct.png_image, ptr %37, i32 0, i32 0
  %39 = load ptr, ptr %38, align 8
  %40 = getelementptr inbounds %struct.png_control, ptr %39, i32 0, i32 0
  %41 = load ptr, ptr %40, align 8
  %42 = getelementptr inbounds %struct.png_struct_def, ptr %41, i32 0, i32 9
  store ptr %36, ptr %42, align 8
  %43 = load ptr, ptr %5, align 8
  %44 = getelementptr inbounds %struct.png_image, ptr %43, i32 0, i32 0
  %45 = load ptr, ptr %44, align 8
  %46 = getelementptr inbounds %struct.png_control, ptr %45, i32 0, i32 0
  %47 = load ptr, ptr %46, align 8
  %48 = getelementptr inbounds %struct.png_struct_def, ptr %47, i32 0, i32 8
  store ptr @png_image_memory_read, ptr %48, align 8
  %49 = load ptr, ptr %5, align 8
  %50 = load ptr, ptr %5, align 8
  %51 = call i32 @png_safe_execute(ptr noundef %49, ptr noundef @png_image_read_header, ptr noundef %50)
  store i32 %51, ptr %4, align 4
  br label %65

52:                                               ; preds = %21
  br label %56

53:                                               ; preds = %18, %15
  %54 = load ptr, ptr %5, align 8
  %55 = call i32 @png_image_error(ptr noundef %54, ptr noundef @.str.19)
  store i32 %55, ptr %4, align 4
  br label %65

56:                                               ; preds = %52
  br label %64

57:                                               ; preds = %10, %3
  %58 = load ptr, ptr %5, align 8
  %59 = icmp ne ptr %58, null
  br i1 %59, label %60, label %63

60:                                               ; preds = %57
  %61 = load ptr, ptr %5, align 8
  %62 = call i32 @png_image_error(ptr noundef %61, ptr noundef @.str.20)
  store i32 %62, ptr %4, align 4
  br label %65

63:                                               ; preds = %57
  br label %64

64:                                               ; preds = %63, %56
  store i32 0, ptr %4, align 4
  br label %65

65:                                               ; preds = %64, %60, %53, %25
  %66 = load i32, ptr %4, align 4
  ret i32 %66
}