; Function Attrs: nounwind uwtable
define i32 @png_image_begin_read_from_memory(ptr noundef %0, ptr noundef %1, i64 noundef %2) local_unnamed_addr #0 {
  %.not = icmp eq ptr %0, null
  br i1 %.not, label %.critedge, label %4

4:                                                ; preds = %3
  %5 = getelementptr inbounds i8, ptr %0, i64 8
  %6 = load i32, ptr %5, align 8
  %7 = icmp eq i32 %6, 1
  br i1 %7, label %8, label %27

8:                                                ; preds = %4
  %9 = icmp ne ptr %1, null
  %10 = icmp ne i64 %2, 0
  %or.cond = and i1 %9, %10
  br i1 %or.cond, label %11, label %25

11:                                               ; preds = %8
  %12 = tail call fastcc i32 @png_image_read_init(ptr noundef nonnull %0)
  %.not21 = icmp eq i32 %12, 0
  br i1 %.not21, label %.critedge, label %13

13:                                               ; preds = %11
  %14 = load ptr, ptr %0, align 8
  %15 = getelementptr inbounds i8, ptr %14, i64 24
  store ptr %1, ptr %15, align 8
  %16 = load ptr, ptr %0, align 8
  %17 = getelementptr inbounds i8, ptr %16, i64 32
  store i64 %2, ptr %17, align 8
  %18 = load ptr, ptr %0, align 8
  %19 = load ptr, ptr %18, align 8
  %20 = getelementptr inbounds i8, ptr %19, i64 264
  store ptr %0, ptr %20, align 8
  %21 = load ptr, ptr %0, align 8
  %22 = load ptr, ptr %21, align 8
  %23 = getelementptr inbounds i8, ptr %22, i64 256
  store ptr @png_image_memory_read, ptr %23, align 8
  %24 = tail call i32 @png_safe_execute(ptr noundef nonnull %0, ptr noundef nonnull @png_image_read_header, ptr noundef nonnull %0) #11
  br label %.critedge

25:                                               ; preds = %8
  %26 = tail call i32 @png_image_error(ptr noundef nonnull %0, ptr noundef nonnull @.str.19) #11
  br label %.critedge

27:                                               ; preds = %4
  %28 = tail call i32 @png_image_error(ptr noundef nonnull %0, ptr noundef nonnull @.str.20) #11
  br label %.critedge

.critedge:                                        ; preds = %11, %3, %27, %25, %13
  %.0 = phi i32 [ %24, %13 ], [ %26, %25 ], [ %28, %27 ], [ 0, %3 ], [ 0, %11 ]
  ret i32 %.0
}